target datalayout = "e-m:e-p270:32:32-p271:32:32-p272:64:64-i64:64-i128:128-f80:128-n8:16:32:64-S128"
target triple = "x86_64-pc-linux-gnu"

%struct.H5FL_reg_gc_list_t = type { i64, ptr }
%struct.H5FL_reg_gc_node_t = type { ptr, ptr }
%struct.H5FL_reg_head_t = type { i8, i32, i32, ptr, i64, ptr }
%struct.H5FL_reg_node_t = type { ptr }

@H5FL_init_g = global i8 0, align 1
@H5_libterm_g = external global i8, align 1
@H5FL_reg_gc_head = internal global %struct.H5FL_reg_gc_list_t zeroinitializer, align 8
@H5FL_reg_lst_mem_lim = internal global i64 65536, align 8
@.str.2 = private unnamed_addr constant [98 x i8] c"generated/home/dtcxzyw/WorkSpace/Projects/compilers/llvm-opt-benchmark/bench/hdf5/hdf5/src/H5FL.c\00", align 1
@__func__.H5FL_reg_free = private unnamed_addr constant [14 x i8] c"H5FL_reg_free\00", align 1
@H5E_RESOURCE_g = external global i64, align 8
@H5E_CANTGC_g = external global i64, align 8
@.str.3 = private unnamed_addr constant [38 x i8] c"garbage collection failed during free\00", align 1
@H5FL_reg_glb_mem_lim = internal global i64 1048576, align 8
@__func__.H5FL__reg_gc = private unnamed_addr constant [13 x i8] c"H5FL__reg_gc\00", align 1
@.str.19 = private unnamed_addr constant [34 x i8] c"garbage collection of list failed\00", align 1

; Function Attrs: nounwind uwtable
define internal i32 @H5FL__reg_gc() #0 {
  %1 = alloca ptr, align 8
  %2 = alloca i32, align 4
  %3 = alloca i8, align 1
  call void @llvm.lifetime.start.p0(i64 8, ptr %1) #9
  call void @llvm.lifetime.start.p0(i64 4, ptr %2) #9
  store i32 0, ptr %2, align 4, !tbaa !3
  call void @llvm.lifetime.start.p0(i64 1, ptr %3) #9
  store i8 0, ptr %3, align 1, !tbaa !7
  %4 = load i8, ptr @H5FL_init_g, align 1, !tbaa !7, !range !9, !noundef !10
  %5 = trunc i8 %4 to i1
  br i1 %5, label %10, label %6

6:                                                ; preds = %0
  %7 = load i8, ptr @H5_libterm_g, align 1, !tbaa !7, !range !9, !noundef !10
  %8 = trunc i8 %7 to i1
  %9 = xor i1 %8, true
  br label %10

10:                                               ; preds = %6, %0
  %11 = phi i1 [ true, %0 ], [ %9, %6 ]
  %12 = xor i1 %11, true
  %13 = xor i1 %12, true
  %14 = zext i1 %13 to i32
  %15 = sext i32 %14 to i64
  %16 = call i64 @llvm.expect.i64(i64 %15, i64 1)
  %17 = icmp ne i64 %16, 0
  br i1 %17, label %18, label %54

18:                                               ; preds = %10
  %19 = load ptr, ptr getelementptr inbounds nuw (%struct.H5FL_reg_gc_list_t, ptr @H5FL_reg_gc_head, i32 0, i32 1), align 8, !tbaa !16
  store ptr %19, ptr %1, align 8, !tbaa !13
  br label %20

20:                                               ; preds = %48, %18
  %21 = load ptr, ptr %1, align 8, !tbaa !13
  %22 = icmp ne ptr %21, null
  br i1 %22, label %23, label %52

23:                                               ; preds = %20
  %24 = load ptr, ptr %1, align 8, !tbaa !13
  %25 = getelementptr inbounds nuw %struct.H5FL_reg_gc_node_t, ptr %24, i32 0, i32 0
  %26 = load ptr, ptr %25, align 8, !tbaa !21
  %27 = call i32 @H5FL__reg_gc_list(ptr noundef %26)
  %28 = icmp slt i32 %27, 0
  br i1 %28, label %29, label %48

29:                                               ; preds = %23
  br label %30

30:                                               ; preds = %29
  br label %31

31:                                               ; preds = %30
  br label %32

32:                                               ; preds = %31
  %33 = load i64, ptr @H5E_RESOURCE_g, align 8, !tbaa !11
  %34 = load i64, ptr @H5E_CANTGC_g, align 8, !tbaa !11
  %35 = call i32 (ptr, ptr, i32, i64, i64, ptr, ...) @H5E_printf_stack(ptr noundef @.str.2, ptr noundef @__func__.H5FL__reg_gc, i32 noundef 473, i64 noundef %33, i64 noundef %34, ptr noundef @.str.19)
  br label %36

36:                                               ; preds = %32
  br label %37

37:                                               ; preds = %36
  store i8 1, ptr %3, align 1, !tbaa !7
  %38 = load i8, ptr %3, align 1, !tbaa !7, !range !9, !noundef !10
  %39 = trunc i8 %38 to i1
  %40 = zext i1 %39 to i8
  store i8 %40, ptr %3, align 1, !tbaa !7
  br label %41

41:                                               ; preds = %37
  br label %42

42:                                               ; preds = %41
  br label %43

43:                                               ; preds = %42
  store i32 -1, ptr %2, align 4, !tbaa !3
  br label %53

44:                                               ; No predecessors!
  br label %45

45:                                               ; preds = %44
  br label %46

46:                                               ; preds = %45
  br label %47

47:                                               ; preds = %46
  br label %48

48:                                               ; preds = %47, %23
  %49 = load ptr, ptr %1, align 8, !tbaa !13
  %50 = getelementptr inbounds nuw %struct.H5FL_reg_gc_node_t, ptr %49, i32 0, i32 1
  %51 = load ptr, ptr %50, align 8, !tbaa !18
  store ptr %51, ptr %1, align 8, !tbaa !13
  br label %20, !llvm.loop !78

52:                                               ; preds = %20
  br label %53

53:                                               ; preds = %52, %43
  br label %54

54:                                               ; preds = %53, %10
  %55 = load i32, ptr %2, align 4, !tbaa !3
  call void @llvm.lifetime.end.p0(i64 1, ptr %3) #9
  call void @llvm.lifetime.end.p0(i64 4, ptr %2) #9
  call void @llvm.lifetime.end.p0(i64 8, ptr %1) #9
  ret i32 %55
}

; Function Attrs: nounwind uwtable
define internal i32 @H5FL__reg_gc_list(ptr noundef %0) #0 {
  %2 = alloca ptr, align 8
  %3 = alloca ptr, align 8
  %4 = alloca ptr, align 8
  store ptr %0, ptr %2, align 8, !tbaa !68
  call void @llvm.lifetime.start.p0(i64 8, ptr %3) #9
  %5 = load i8, ptr @H5FL_init_g, align 1, !tbaa !7, !range !9, !noundef !10
  %6 = trunc i8 %5 to i1
  br i1 %6, label %11, label %7

7:                                                ; preds = %1
  %8 = load i8, ptr @H5_libterm_g, align 1, !tbaa !7, !range !9, !noundef !10
  %9 = trunc i8 %8 to i1
  %10 = xor i1 %9, true
  br label %11

11:                                               ; preds = %7, %1
  %12 = phi i1 [ true, %1 ], [ %10, %7 ]
  %13 = xor i1 %12, true
  %14 = xor i1 %13, true
  %15 = zext i1 %14 to i32
  %16 = sext i32 %15 to i64
  %17 = call i64 @llvm.expect.i64(i64 %16, i64 1)
  %18 = icmp ne i64 %17, 0
  br i1 %18, label %19, label %54

19:                                               ; preds = %11
  %20 = load ptr, ptr %2, align 8, !tbaa !68
  %21 = getelementptr inbounds nuw %struct.H5FL_reg_head_t, ptr %20, i32 0, i32 5
  %22 = load ptr, ptr %21, align 8, !tbaa !70
  store ptr %22, ptr %3, align 8, !tbaa !76
  br label %23

23:                                               ; preds = %26, %19
  %24 = load ptr, ptr %3, align 8, !tbaa !76
  %25 = icmp ne ptr %24, null
  br i1 %25, label %26, label %32

26:                                               ; preds = %23
  call void @llvm.lifetime.start.p0(i64 8, ptr %4) #9
  %27 = load ptr, ptr %3, align 8, !tbaa !76
  %28 = getelementptr inbounds nuw %struct.H5FL_reg_node_t, ptr %27, i32 0, i32 0
  %29 = load ptr, ptr %28, align 8, !tbaa !71
  store ptr %29, ptr %4, align 8, !tbaa !76
  %30 = load ptr, ptr %3, align 8, !tbaa !76
  call void @free(ptr noundef %30) #9
  %31 = load ptr, ptr %4, align 8, !tbaa !76
  store ptr %31, ptr %3, align 8, !tbaa !76
  call void @llvm.lifetime.end.p0(i64 8, ptr %4) #9
  br label %23, !llvm.loop !77

32:                                               ; preds = %23
  %33 = load ptr, ptr %2, align 8, !tbaa !68
  %34 = getelementptr inbounds nuw %struct.H5FL_reg_head_t, ptr %33, i32 0, i32 2
  %35 = load i32, ptr %34, align 8, !tbaa !73
  %36 = load ptr, ptr %2, align 8, !tbaa !68
  %37 = getelementptr inbounds nuw %struct.H5FL_reg_head_t, ptr %36, i32 0, i32 1
  %38 = load i32, ptr %37, align 4, !tbaa !22
  %39 = sub i32 %38, %35
  store i32 %39, ptr %37, align 4, !tbaa !22
  %40 = load ptr, ptr %2, align 8, !tbaa !68
  %41 = getelementptr inbounds nuw %struct.H5FL_reg_head_t, ptr %40, i32 0, i32 2
  %42 = load i32, ptr %41, align 8, !tbaa !73
  %43 = zext i32 %42 to i64
  %44 = load ptr, ptr %2, align 8, !tbaa !68
  %45 = getelementptr inbounds nuw %struct.H5FL_reg_head_t, ptr %44, i32 0, i32 4
  %46 = load i64, ptr %45, align 8, !tbaa !74
  %47 = mul i64 %43, %46
  %48 = load i64, ptr @H5FL_reg_gc_head, align 8, !tbaa !75
  %49 = sub i64 %48, %47
  store i64 %49, ptr @H5FL_reg_gc_head, align 8, !tbaa !75
  %50 = load ptr, ptr %2, align 8, !tbaa !68
  %51 = getelementptr inbounds nuw %struct.H5FL_reg_head_t, ptr %50, i32 0, i32 5
  store ptr null, ptr %51, align 8, !tbaa !70
  %52 = load ptr, ptr %2, align 8, !tbaa !68
  %53 = getelementptr inbounds nuw %struct.H5FL_reg_head_t, ptr %52, i32 0, i32 2
  store i32 0, ptr %53, align 8, !tbaa !73
  br label %54

54:                                               ; preds = %32, %11
  call void @llvm.lifetime.end.p0(i64 8, ptr %3) #9
  ret i32 0
}

; Function Attrs: nounwind uwtable
define ptr @H5FL_reg_free(ptr noundef %0, ptr noundef %1) #0 {
  %3 = alloca ptr, align 8
  %4 = alloca ptr, align 8
  %5 = alloca ptr, align 8
  %6 = alloca i8, align 1
  store ptr %0, ptr %3, align 8, !tbaa !68
  store ptr %1, ptr %4, align 8, !tbaa !69
  call void @llvm.lifetime.start.p0(i64 8, ptr %5) #9
  store ptr null, ptr %5, align 8, !tbaa !69
  call void @llvm.lifetime.start.p0(i64 1, ptr %6) #9
  store i8 0, ptr %6, align 1, !tbaa !7
  %7 = load i8, ptr @H5FL_init_g, align 1, !tbaa !7, !range !9, !noundef !10
  %8 = trunc i8 %7 to i1
  br i1 %8, label %13, label %9

9:                                                ; preds = %2
  %10 = load i8, ptr @H5_libterm_g, align 1, !tbaa !7, !range !9, !noundef !10
  %11 = trunc i8 %10 to i1
  %12 = xor i1 %11, true
  br label %13

13:                                               ; preds = %9, %2
  %14 = phi i1 [ true, %2 ], [ %12, %9 ]
  %15 = xor i1 %14, true
  %16 = xor i1 %15, true
  %17 = zext i1 %16 to i32
  %18 = sext i32 %17 to i64
  %19 = call i64 @llvm.expect.i64(i64 %18, i64 1)
  %20 = icmp ne i64 %19, 0
  br i1 %20, label %21, label %102

21:                                               ; preds = %13
  %22 = load ptr, ptr %3, align 8, !tbaa !68
  %23 = getelementptr inbounds nuw %struct.H5FL_reg_head_t, ptr %22, i32 0, i32 5
  %24 = load ptr, ptr %23, align 8, !tbaa !70
  %25 = load ptr, ptr %4, align 8, !tbaa !69
  %26 = getelementptr inbounds nuw %struct.H5FL_reg_node_t, ptr %25, i32 0, i32 0
  store ptr %24, ptr %26, align 8, !tbaa !71
  %27 = load ptr, ptr %4, align 8, !tbaa !69
  %28 = load ptr, ptr %3, align 8, !tbaa !68
  %29 = getelementptr inbounds nuw %struct.H5FL_reg_head_t, ptr %28, i32 0, i32 5
  store ptr %27, ptr %29, align 8, !tbaa !70
  %30 = load ptr, ptr %3, align 8, !tbaa !68
  %31 = getelementptr inbounds nuw %struct.H5FL_reg_head_t, ptr %30, i32 0, i32 2
  %32 = load i32, ptr %31, align 8, !tbaa !73
  %33 = add i32 %32, 1
  store i32 %33, ptr %31, align 8, !tbaa !73
  %34 = load ptr, ptr %3, align 8, !tbaa !68
  %35 = getelementptr inbounds nuw %struct.H5FL_reg_head_t, ptr %34, i32 0, i32 4
  %36 = load i64, ptr %35, align 8, !tbaa !74
  %37 = load i64, ptr @H5FL_reg_gc_head, align 8, !tbaa !75
  %38 = add i64 %37, %36
  store i64 %38, ptr @H5FL_reg_gc_head, align 8, !tbaa !75
  %39 = load ptr, ptr %3, align 8, !tbaa !68
  %40 = getelementptr inbounds nuw %struct.H5FL_reg_head_t, ptr %39, i32 0, i32 2
  %41 = load i32, ptr %40, align 8, !tbaa !73
  %42 = zext i32 %41 to i64
  %43 = load ptr, ptr %3, align 8, !tbaa !68
  %44 = getelementptr inbounds nuw %struct.H5FL_reg_head_t, ptr %43, i32 0, i32 4
  %45 = load i64, ptr %44, align 8, !tbaa !74
  %46 = mul i64 %42, %45
  %47 = load i64, ptr @H5FL_reg_lst_mem_lim, align 8, !tbaa !11
  %48 = icmp ugt i64 %46, %47
  br i1 %48, label %49, label %73

49:                                               ; preds = %21
  %50 = load ptr, ptr %3, align 8, !tbaa !68
  %51 = call i32 @H5FL__reg_gc_list(ptr noundef %50)
  %52 = icmp slt i32 %51, 0
  br i1 %52, label %53, label %72

53:                                               ; preds = %49
  br label %54

54:                                               ; preds = %53
  br label %55

55:                                               ; preds = %54
  br label %56

56:                                               ; preds = %55
  %57 = load i64, ptr @H5E_RESOURCE_g, align 8, !tbaa !11
  %58 = load i64, ptr @H5E_CANTGC_g, align 8, !tbaa !11
  %59 = call i32 (ptr, ptr, i32, i64, i64, ptr, ...) @H5E_printf_stack(ptr noundef @.str.2, ptr noundef @__func__.H5FL_reg_free, i32 noundef 311, i64 noundef %57, i64 noundef %58, ptr noundef @.str.3)
  br label %60

60:                                               ; preds = %56
  br label %61

61:                                               ; preds = %60
  store i8 1, ptr %6, align 1, !tbaa !7
  %62 = load i8, ptr %6, align 1, !tbaa !7, !range !9, !noundef !10
  %63 = trunc i8 %62 to i1
  %64 = zext i1 %63 to i8
  store i8 %64, ptr %6, align 1, !tbaa !7
  br label %65

65:                                               ; preds = %61
  br label %66

66:                                               ; preds = %65
  br label %67

67:                                               ; preds = %66
  store ptr null, ptr %5, align 8, !tbaa !69
  br label %101

68:                                               ; No predecessors!
  br label %69

69:                                               ; preds = %68
  br label %70

70:                                               ; preds = %69
  br label %71

71:                                               ; preds = %70
  br label %72

72:                                               ; preds = %71, %49
  br label %73

73:                                               ; preds = %72, %21
  %74 = load i64, ptr @H5FL_reg_gc_head, align 8, !tbaa !75
  %75 = load i64, ptr @H5FL_reg_glb_mem_lim, align 8, !tbaa !11
  %76 = icmp ugt i64 %74, %75
  br i1 %76, label %77, label %100

77:                                               ; preds = %73
  %78 = call i32 @H5FL__reg_gc()
  %79 = icmp slt i32 %78, 0
  br i1 %79, label %80, label %99

80:                                               ; preds = %77
  br label %81

81:                                               ; preds = %80
  br label %82

82:                                               ; preds = %81
  br label %83

83:                                               ; preds = %82
  %84 = load i64, ptr @H5E_RESOURCE_g, align 8, !tbaa !11
  %85 = load i64, ptr @H5E_CANTGC_g, align 8, !tbaa !11
  %86 = call i32 (ptr, ptr, i32, i64, i64, ptr, ...) @H5E_printf_stack(ptr noundef @.str.2, ptr noundef @__func__.H5FL_reg_free, i32 noundef 316, i64 noundef %84, i64 noundef %85, ptr noundef @.str.3)
  br label %87

87:                                               ; preds = %83
  br label %88

88:                                               ; preds = %87
  store i8 1, ptr %6, align 1, !tbaa !7
  %89 = load i8, ptr %6, align 1, !tbaa !7, !range !9, !noundef !10
  %90 = trunc i8 %89 to i1
  %91 = zext i1 %90 to i8
  store i8 %91, ptr %6, align 1, !tbaa !7
  br label %92

92:                                               ; preds = %88
  br label %93

93:                                               ; preds = %92
  br label %94

94:                                               ; preds = %93
  store ptr null, ptr %5, align 8, !tbaa !69
  br label %101

95:                                               ; No predecessors!
  br label %96

96:                                               ; preds = %95
  br label %97

97:                                               ; preds = %96
  br label %98

98:                                               ; preds = %97
  br label %99

99:                                               ; preds = %98, %77
  br label %100

100:                                              ; preds = %99, %73
  br label %101

101:                                              ; preds = %100, %94, %67
  br label %102

102:                                              ; preds = %101, %13
  %103 = load ptr, ptr %5, align 8, !tbaa !69
  call void @llvm.lifetime.end.p0(i64 1, ptr %6) #9
  call void @llvm.lifetime.end.p0(i64 8, ptr %5) #9
  ret ptr %103
}