; Function Attrs: nounwind uwtable
define noalias noundef ptr @H5FL_reg_free(ptr noundef captures(none) %0, ptr noundef %1) local_unnamed_addr #0 {
  %3 = load i8, ptr @H5FL_init_g, align 1, !tbaa !3, !range !7, !noundef !8
  %4 = trunc nuw i8 %3 to i1
  %5 = load i8, ptr @H5_libterm_g, align 1, !range !7
  %6 = trunc nuw i8 %5 to i1
  %7 = xor i1 %6, true
  %8 = select i1 %4, i1 true, i1 %7
  br i1 %8, label %9, label %H5FL__reg_gc.exit, !prof !15

9:                                                ; preds = %2
  %10 = getelementptr inbounds nuw i8, ptr %0, i64 32
  %11 = load ptr, ptr %10, align 8, !tbaa !67
  store ptr %11, ptr %1, align 8, !tbaa !68
  store ptr %1, ptr %10, align 8, !tbaa !67
  %12 = getelementptr inbounds nuw i8, ptr %0, i64 8
  %13 = load i32, ptr %12, align 8, !tbaa !71
  %14 = add i32 %13, 1
  store i32 %14, ptr %12, align 8, !tbaa !71
  %15 = getelementptr inbounds nuw i8, ptr %0, i64 24
  %16 = load i64, ptr %15, align 8, !tbaa !72
  %17 = load i64, ptr @H5FL_reg_gc_head.0, align 8, !tbaa !73
  %18 = add i64 %17, %16
  store i64 %18, ptr @H5FL_reg_gc_head.0, align 8, !tbaa !73
  %19 = zext i32 %14 to i64
  %20 = mul i64 %16, %19
  %21 = load i64, ptr @H5FL_reg_lst_mem_lim, align 8, !tbaa !86
  %22 = icmp ugt i64 %20, %21
  br i1 %22, label %23, label %H5FL__reg_gc_list.exit

23:                                               ; preds = %9
  %24 = load i8, ptr @H5_libterm_g, align 1, !range !7
  %25 = trunc nuw i8 %24 to i1
  %26 = xor i1 %25, true
  %27 = select i1 %4, i1 true, i1 %26
  br i1 %27, label %.lr.ph.i, label %H5FL__reg_gc_list.exit, !prof !15

.lr.ph.i:                                         ; preds = %23, %.lr.ph.i
  %.012.i = phi ptr [ %28, %.lr.ph.i ], [ %1, %23 ]
  %28 = load ptr, ptr %.012.i, align 8, !tbaa !68
  tail call void @free(ptr noundef nonnull %.012.i) #10
  %.not.i = icmp eq ptr %28, null
  br i1 %.not.i, label %._crit_edge.i, label %.lr.ph.i, !llvm.loop !70

._crit_edge.i:                                    ; preds = %.lr.ph.i
  %29 = load i32, ptr %12, align 8, !tbaa !71
  %30 = getelementptr inbounds nuw i8, ptr %0, i64 4
  %31 = load i32, ptr %30, align 4, !tbaa !20
  %32 = sub i32 %31, %29
  store i32 %32, ptr %30, align 4, !tbaa !20
  %33 = zext i32 %29 to i64
  %34 = load i64, ptr %15, align 8, !tbaa !72
  %35 = mul i64 %34, %33
  %36 = sub i64 %18, %35
  store i64 %36, ptr @H5FL_reg_gc_head.0, align 8, !tbaa !73
  store ptr null, ptr %10, align 8, !tbaa !67
  store i32 0, ptr %12, align 8, !tbaa !71
  br label %H5FL__reg_gc_list.exit

H5FL__reg_gc_list.exit:                           ; preds = %._crit_edge.i, %23, %9
  %37 = phi i64 [ %36, %._crit_edge.i ], [ %18, %23 ], [ %18, %9 ]
  %38 = load i64, ptr @H5FL_reg_glb_mem_lim, align 8, !tbaa !86
  %39 = icmp ugt i64 %37, %38
  br i1 %39, label %40, label %H5FL__reg_gc.exit

40:                                               ; preds = %H5FL__reg_gc_list.exit
  %41 = load i8, ptr @H5FL_init_g, align 1, !tbaa !3, !range !7, !noundef !8
  %42 = trunc nuw i8 %41 to i1
  %43 = load i8, ptr @H5_libterm_g, align 1, !range !7
  %44 = trunc nuw i8 %43 to i1
  %not..i = xor i1 %42, true
  %.not8.i = select i1 %not..i, i1 %44, i1 false
  %.045.i = load ptr, ptr @H5FL_reg_gc_head.1, align 8
  %.not6.i = icmp eq ptr %.045.i, null
  %or.cond.i = select i1 %.not8.i, i1 true, i1 %.not6.i
  br i1 %or.cond.i, label %H5FL__reg_gc.exit, label %.lr.ph.i11, !prof !64

.lr.ph.i11:                                       ; preds = %40, %H5FL__reg_gc_list.exit.i
  %45 = phi i64 [ %68, %H5FL__reg_gc_list.exit.i ], [ %37, %40 ]
  %.047.i = phi ptr [ %.04.i, %H5FL__reg_gc_list.exit.i ], [ %.045.i, %40 ]
  %46 = load ptr, ptr %.047.i, align 8, !tbaa !19
  %47 = load i8, ptr @H5FL_init_g, align 1, !tbaa !3, !range !7, !noundef !8
  %48 = trunc nuw i8 %47 to i1
  %49 = load i8, ptr @H5_libterm_g, align 1, !range !7
  %50 = trunc nuw i8 %49 to i1
  %51 = xor i1 %50, true
  %52 = select i1 %48, i1 true, i1 %51
  br i1 %52, label %53, label %H5FL__reg_gc_list.exit.i, !prof !15

53:                                               ; preds = %.lr.ph.i11
  %54 = getelementptr inbounds nuw i8, ptr %46, i64 32
  %55 = load ptr, ptr %54, align 8, !tbaa !67
  %.not11.i.i = icmp eq ptr %55, null
  br i1 %.not11.i.i, label %._crit_edge.i.i, label %.lr.ph.i.i

.lr.ph.i.i:                                       ; preds = %53, %.lr.ph.i.i
  %.012.i.i = phi ptr [ %56, %.lr.ph.i.i ], [ %55, %53 ]
  %56 = load ptr, ptr %.012.i.i, align 8, !tbaa !68
  tail call void @free(ptr noundef nonnull %.012.i.i) #10
  %.not.i.i = icmp eq ptr %56, null
  br i1 %.not.i.i, label %._crit_edge.i.i.loopexit, label %.lr.ph.i.i, !llvm.loop !70

._crit_edge.i.i.loopexit:                         ; preds = %.lr.ph.i.i
  %.pre = load i64, ptr @H5FL_reg_gc_head.0, align 8, !tbaa !73
  br label %._crit_edge.i.i

._crit_edge.i.i:                                  ; preds = %._crit_edge.i.i.loopexit, %53
  %57 = phi i64 [ %.pre, %._crit_edge.i.i.loopexit ], [ %45, %53 ]
  %58 = getelementptr inbounds nuw i8, ptr %46, i64 8
  %59 = load i32, ptr %58, align 8, !tbaa !71
  %60 = getelementptr inbounds nuw i8, ptr %46, i64 4
  %61 = load i32, ptr %60, align 4, !tbaa !20
  %62 = sub i32 %61, %59
  store i32 %62, ptr %60, align 4, !tbaa !20
  %63 = zext i32 %59 to i64
  %64 = getelementptr inbounds nuw i8, ptr %46, i64 24
  %65 = load i64, ptr %64, align 8, !tbaa !72
  %66 = mul i64 %65, %63
  %67 = sub i64 %57, %66
  store i64 %67, ptr @H5FL_reg_gc_head.0, align 8, !tbaa !73
  store ptr null, ptr %54, align 8, !tbaa !67
  store i32 0, ptr %58, align 8, !tbaa !71
  br label %H5FL__reg_gc_list.exit.i

H5FL__reg_gc_list.exit.i:                         ; preds = %._crit_edge.i.i, %.lr.ph.i11
  %68 = phi i64 [ %67, %._crit_edge.i.i ], [ %45, %.lr.ph.i11 ]
  %69 = getelementptr inbounds nuw i8, ptr %.047.i, i64 8
  %.04.i = load ptr, ptr %69, align 8, !tbaa !74
  %.not.i12 = icmp eq ptr %.04.i, null
  br i1 %.not.i12, label %H5FL__reg_gc.exit, label %.lr.ph.i11, !llvm.loop !75

H5FL__reg_gc.exit:                                ; preds = %H5FL__reg_gc_list.exit.i, %40, %H5FL__reg_gc_list.exit, %2
  ret ptr null
}